; Function Attrs: mustprogress uwtable
define internal void @_ZN9grpc_core12_GLOBAL__N_120TCPConnectHandshaker8ShutdownEN4absl12lts_202407226StatusE(ptr noundef nonnull align 16 dereferenceable(280) %0, ptr readnone captures(none) %1) unnamed_addr #3 align 2 personality ptr @__gxx_personality_v0 {
  %3 = alloca %"class.absl::lts_20240722::Status", align 8
  %4 = alloca %"class.grpc_core::DebugLocation", align 1
  %5 = alloca %"class.std::vector.81", align 8
  %6 = getelementptr inbounds nuw i8, ptr %0, i64 16
  tail call void @_ZN4absl12lts_202407225Mutex4LockEv(ptr noundef nonnull align 8 dereferenceable(8) %6)
  %7 = getelementptr inbounds nuw i8, ptr %0, i64 24
  %8 = load i8, ptr %7, align 8, !tbaa !30, !range !65, !noundef !66
  %9 = trunc nuw i8 %8 to i1
  br i1 %9, label %49, label %10

10:                                               ; preds = %2
  store i8 1, ptr %7, align 8, !tbaa !30
  %11 = getelementptr inbounds nuw i8, ptr %0, i64 72
  %12 = load ptr, ptr %11, align 8, !tbaa !52
  %.not = icmp eq ptr %12, null
  br i1 %.not, label %49, label %13

13:                                               ; preds = %10
  call void @llvm.lifetime.start.p0(i64 1, ptr nonnull %4) #25
  call void @llvm.memset.p0.i64(ptr noundef nonnull align 8 dereferenceable(24) %5, i8 0, i64 24, i1 false)
  invoke void @_ZN9grpc_core12StatusCreateEN4absl12lts_2024072210StatusCodeESt17basic_string_viewIcSt11char_traitsIcEERKNS_13DebugLocationESt6vectorINS1_6StatusESaISB_EE(ptr dead_on_unwind nonnull writable sret(%"class.absl::lts_20240722::Status") align 8 %3, i32 noundef 2, i64 23, ptr nonnull @.str.3, ptr noundef nonnull align 1 dereferenceable(1) %4, ptr noundef nonnull %5)
          to label %14 unwind label %41

14:                                               ; preds = %13
  invoke fastcc void @_ZN9grpc_core12_GLOBAL__N_120TCPConnectHandshaker12FinishLockedEN4absl12lts_202407226StatusE(ptr noundef nonnull align 16 dereferenceable(280) %0, ptr noundef %3)
          to label %15 unwind label %43

15:                                               ; preds = %14
  %16 = load i64, ptr %3, align 8, !tbaa !63
  %17 = and i64 %16, 1
  %.not.i.i = icmp eq i64 %17, 0
  br i1 %.not.i.i, label %18, label %_ZN4absl12lts_202407226StatusD2Ev.exit

18:                                               ; preds = %15
  %19 = inttoptr i64 %16 to ptr
  invoke void @_ZNK4absl12lts_2024072215status_internal9StatusRep5UnrefEv(ptr noundef nonnull align 8 dereferenceable(48) %19)
          to label %_ZN4absl12lts_202407226StatusD2Ev.exit unwind label %20

20:                                               ; preds = %18
  %21 = landingpad { ptr, i32 }
          catch ptr null
  %22 = extractvalue { ptr, i32 } %21, 0
  call void @__clang_call_terminate(ptr %22) #28
  unreachable

_ZN4absl12lts_202407226StatusD2Ev.exit:           ; preds = %15, %18
  %23 = load ptr, ptr %5, align 8, !tbaa !67
  %24 = getelementptr inbounds nuw i8, ptr %5, i64 8
  %25 = load ptr, ptr %24, align 8, !tbaa !70
  %.not4.i.i.i.i = icmp eq ptr %23, %25
  br i1 %.not4.i.i.i.i, label %_ZSt8_DestroyIPN4absl12lts_202407226StatusES2_EvT_S4_RSaIT0_E.exit.i, label %.lr.ph.i.i.i.i

.lr.ph.i.i.i.i:                                   ; preds = %_ZN4absl12lts_202407226StatusD2Ev.exit, %_ZSt8_DestroyIN4absl12lts_202407226StatusEEvPT_.exit.i.i.i.i
  %.05.i.i.i.i = phi ptr [ %33, %_ZSt8_DestroyIN4absl12lts_202407226StatusEEvPT_.exit.i.i.i.i ], [ %23, %_ZN4absl12lts_202407226StatusD2Ev.exit ]
  %26 = load i64, ptr %.05.i.i.i.i, align 8, !tbaa !63
  %27 = and i64 %26, 1
  %.not.i.i.i.i.i.i.i = icmp eq i64 %27, 0
  br i1 %.not.i.i.i.i.i.i.i, label %28, label %_ZSt8_DestroyIN4absl12lts_202407226StatusEEvPT_.exit.i.i.i.i

28:                                               ; preds = %.lr.ph.i.i.i.i
  %29 = inttoptr i64 %26 to ptr
  invoke void @_ZNK4absl12lts_2024072215status_internal9StatusRep5UnrefEv(ptr noundef nonnull align 8 dereferenceable(48) %29)
          to label %_ZSt8_DestroyIN4absl12lts_202407226StatusEEvPT_.exit.i.i.i.i unwind label %30

30:                                               ; preds = %28
  %31 = landingpad { ptr, i32 }
          catch ptr null
  %32 = extractvalue { ptr, i32 } %31, 0
  call void @__clang_call_terminate(ptr %32) #28
  unreachable

_ZSt8_DestroyIN4absl12lts_202407226StatusEEvPT_.exit.i.i.i.i: ; preds = %28, %.lr.ph.i.i.i.i
  %33 = getelementptr inbounds nuw i8, ptr %.05.i.i.i.i, i64 8
  %.not.i.i.i.i = icmp eq ptr %33, %25
  br i1 %.not.i.i.i.i, label %_ZSt8_DestroyIPN4absl12lts_202407226StatusES2_EvT_S4_RSaIT0_E.exitthread-pre-split.i, label %.lr.ph.i.i.i.i, !llvm.loop !71

_ZSt8_DestroyIPN4absl12lts_202407226StatusES2_EvT_S4_RSaIT0_E.exitthread-pre-split.i: ; preds = %_ZSt8_DestroyIN4absl12lts_202407226StatusEEvPT_.exit.i.i.i.i
  %.pr.i = load ptr, ptr %5, align 8, !tbaa !67
  br label %_ZSt8_DestroyIPN4absl12lts_202407226StatusES2_EvT_S4_RSaIT0_E.exit.i

_ZSt8_DestroyIPN4absl12lts_202407226StatusES2_EvT_S4_RSaIT0_E.exit.i: ; preds = %_ZSt8_DestroyIPN4absl12lts_202407226StatusES2_EvT_S4_RSaIT0_E.exitthread-pre-split.i, %_ZN4absl12lts_202407226StatusD2Ev.exit
  %34 = phi ptr [ %.pr.i, %_ZSt8_DestroyIPN4absl12lts_202407226StatusES2_EvT_S4_RSaIT0_E.exitthread-pre-split.i ], [ %23, %_ZN4absl12lts_202407226StatusD2Ev.exit ]
  %.not.i.i.i = icmp eq ptr %34, null
  br i1 %.not.i.i.i, label %_ZNSt6vectorIN4absl12lts_202407226StatusESaIS2_EED2Ev.exit, label %35

35:                                               ; preds = %_ZSt8_DestroyIPN4absl12lts_202407226StatusES2_EvT_S4_RSaIT0_E.exit.i
  %36 = getelementptr inbounds nuw i8, ptr %5, i64 16
  %37 = load ptr, ptr %36, align 8, !tbaa !73
  %38 = ptrtoint ptr %37 to i64
  %39 = ptrtoint ptr %34 to i64
  %40 = sub i64 %38, %39
  call void @_ZdlPvm(ptr noundef nonnull %34, i64 noundef %40) #27
  br label %_ZNSt6vectorIN4absl12lts_202407226StatusESaIS2_EED2Ev.exit

_ZNSt6vectorIN4absl12lts_202407226StatusESaIS2_EED2Ev.exit: ; preds = %_ZSt8_DestroyIPN4absl12lts_202407226StatusES2_EvT_S4_RSaIT0_E.exit.i, %35
  call void @llvm.lifetime.end.p0(i64 1, ptr nonnull %4) #25
  br label %49

41:                                               ; preds = %13
  %42 = landingpad { ptr, i32 }
          cleanup
  br label %45

43:                                               ; preds = %14
  %44 = landingpad { ptr, i32 }
          cleanup
  call void @_ZN4absl12lts_202407226StatusD2Ev(ptr noundef nonnull align 8 dereferenceable(8) %3) #25
  br label %45

45:                                               ; preds = %43, %41
  %.pn = phi { ptr, i32 } [ %44, %43 ], [ %42, %41 ]
  call void @_ZNSt6vectorIN4absl12lts_202407226StatusESaIS2_EED2Ev(ptr noundef nonnull align 8 dereferenceable(24) %5) #25
  call void @llvm.lifetime.end.p0(i64 1, ptr nonnull %4) #25
  invoke void @_ZN4absl12lts_202407225Mutex6UnlockEv(ptr noundef nonnull align 8 dereferenceable(8) %6)
          to label %_ZN4absl12lts_202407229MutexLockD2Ev.exit unwind label %46

46:                                               ; preds = %45
  %47 = landingpad { ptr, i32 }
          catch ptr null
  %48 = extractvalue { ptr, i32 } %47, 0
  call void @__clang_call_terminate(ptr %48) #28
  unreachable

_ZN4absl12lts_202407229MutexLockD2Ev.exit:        ; preds = %45
  resume { ptr, i32 } %.pn

49:                                               ; preds = %10, %_ZNSt6vectorIN4absl12lts_202407226StatusESaIS2_EED2Ev.exit, %2
  invoke void @_ZN4absl12lts_202407225Mutex6UnlockEv(ptr noundef nonnull align 8 dereferenceable(8) %6)
          to label %_ZN4absl12lts_202407229MutexLockD2Ev.exit4 unwind label %50

50:                                               ; preds = %49
  %51 = landingpad { ptr, i32 }
          catch ptr null
  %52 = extractvalue { ptr, i32 } %51, 0
  call void @__clang_call_terminate(ptr %52) #28
  unreachable

_ZN4absl12lts_202407229MutexLockD2Ev.exit4:       ; preds = %49
  ret void
}